; ModuleID = '21/1423.c'
source_filename = "21/1423.c"
target datalayout = "e-m:e-p270:32:32-p271:32:32-p272:64:64-i64:64-f80:128-n8:16:32:64-S128"
target triple = "x86_64-pc-linux-gnu"

@.str = private unnamed_addr constant [3 x i8] c"%d\00", align 1
@.str.1 = private unnamed_addr constant [6 x i8] c"%d,%d\00", align 1

; Function Attrs: noinline nounwind uwtable
define dso_local i32 @main() #0 {
  %1 = alloca i32, align 4
  %2 = alloca i32, align 4
  %3 = alloca i32, align 4
  %4 = alloca i32, align 4
  %5 = alloca i32, align 4
  %6 = alloca i32, align 4
  %7 = alloca [301 x i32], align 16
  %8 = alloca double, align 8
  %9 = alloca double, align 8
  %10 = alloca double, align 8
  %11 = alloca i32, align 4
  %12 = alloca i32, align 4
  %13 = alloca i32, align 4
  store i32 0, i32* %1, align 4
  store i32 0, i32* %6, align 4
  %14 = call i32 (i8*, ...) @__isoc99_scanf(i8* getelementptr inbounds ([3 x i8], [3 x i8]* @.str, i64 0, i64 0), i32* %2)
  store i32 0, i32* %11, align 4
  br label %15

15:                                               ; preds = %30, %0
  %16 = load i32, i32* %11, align 4
  %17 = load i32, i32* %2, align 4
  %18 = icmp slt i32 %16, %17
  br i1 %18, label %19, label %33

19:                                               ; preds = %15
  %20 = load i32, i32* %11, align 4
  %21 = sext i32 %20 to i64
  %22 = getelementptr inbounds [301 x i32], [301 x i32]* %7, i64 0, i64 %21
  %23 = call i32 (i8*, ...) @__isoc99_scanf(i8* getelementptr inbounds ([3 x i8], [3 x i8]* @.str, i64 0, i64 0), i32* %22)
  %24 = load i32, i32* %11, align 4
  %25 = sext i32 %24 to i64
  %26 = getelementptr inbounds [301 x i32], [301 x i32]* %7, i64 0, i64 %25
  %27 = load i32, i32* %26, align 4
  %28 = load i32, i32* %6, align 4
  %29 = add nsw i32 %28, %27
  store i32 %29, i32* %6, align 4
  br label %30

30:                                               ; preds = %19
  %31 = load i32, i32* %11, align 4
  %32 = add nsw i32 %31, 1
  store i32 %32, i32* %11, align 4
  br label %15

33:                                               ; preds = %15
  %34 = load i32, i32* %6, align 4
  %35 = sitofp i32 %34 to double
  %36 = load i32, i32* %2, align 4
  %37 = sitofp i32 %36 to double
  %38 = fdiv double %35, %37
  store double %38, double* %8, align 8
  store i32 0, i32* %12, align 4
  br label %39

39:                                               ; preds = %79, %33
  %40 = load i32, i32* %12, align 4
  %41 = load i32, i32* %2, align 4
  %42 = sub nsw i32 %41, 1
  %43 = icmp slt i32 %40, %42
  br i1 %43, label %44, label %82

44:                                               ; preds = %39
  %45 = load i32, i32* %12, align 4
  %46 = sext i32 %45 to i64
  %47 = getelementptr inbounds [301 x i32], [301 x i32]* %7, i64 0, i64 %46
  %48 = load i32, i32* %47, align 4
  %49 = load i32, i32* %12, align 4
  %50 = add nsw i32 %49, 1
  %51 = sext i32 %50 to i64
  %52 = getelementptr inbounds [301 x i32], [301 x i32]* %7, i64 0, i64 %51
  %53 = load i32, i32* %52, align 4
  %54 = icmp sgt i32 %48, %53
  br i1 %54, label %55, label %73

55:                                               ; preds = %44
  %56 = load i32, i32* %12, align 4
  %57 = add nsw i32 %56, 1
  %58 = sext i32 %57 to i64
  %59 = getelementptr inbounds [301 x i32], [301 x i32]* %7, i64 0, i64 %58
  %60 = load i32, i32* %59, align 4
  store i32 %60, i32* %5, align 4
  %61 = load i32, i32* %12, align 4
  %62 = sext i32 %61 to i64
  %63 = getelementptr inbounds [301 x i32], [301 x i32]* %7, i64 0, i64 %62
  %64 = load i32, i32* %63, align 4
  %65 = load i32, i32* %12, align 4
  %66 = add nsw i32 %65, 1
  %67 = sext i32 %66 to i64
  %68 = getelementptr inbounds [301 x i32], [301 x i32]* %7, i64 0, i64 %67
  store i32 %64, i32* %68, align 4
  %69 = load i32, i32* %5, align 4
  %70 = load i32, i32* %12, align 4
  %71 = sext i32 %70 to i64
  %72 = getelementptr inbounds [301 x i32], [301 x i32]* %7, i64 0, i64 %71
  store i32 %69, i32* %72, align 4
  br label %73

73:                                               ; preds = %55, %44
  %74 = load i32, i32* %2, align 4
  %75 = sub nsw i32 %74, 1
  %76 = sext i32 %75 to i64
  %77 = getelementptr inbounds [301 x i32], [301 x i32]* %7, i64 0, i64 %76
  %78 = load i32, i32* %77, align 4
  store i32 %78, i32* %3, align 4
  br label %79

79:                                               ; preds = %73
  %80 = load i32, i32* %12, align 4
  %81 = add nsw i32 %80, 1
  store i32 %81, i32* %12, align 4
  br label %39

82:                                               ; preds = %39
  store i32 0, i32* %13, align 4
  br label %83

83:                                               ; preds = %123, %82
  %84 = load i32, i32* %13, align 4
  %85 = load i32, i32* %2, align 4
  %86 = sub nsw i32 %85, 1
  %87 = icmp slt i32 %84, %86
  br i1 %87, label %88, label %126

88:                                               ; preds = %83
  %89 = load i32, i32* %13, align 4
  %90 = sext i32 %89 to i64
  %91 = getelementptr inbounds [301 x i32], [301 x i32]* %7, i64 0, i64 %90
  %92 = load i32, i32* %91, align 4
  %93 = load i32, i32* %13, align 4
  %94 = add nsw i32 %93, 1
  %95 = sext i32 %94 to i64
  %96 = getelementptr inbounds [301 x i32], [301 x i32]* %7, i64 0, i64 %95
  %97 = load i32, i32* %96, align 4
  %98 = icmp slt i32 %92, %97
  br i1 %98, label %99, label %117

99:                                               ; preds = %88
  %100 = load i32, i32* %13, align 4
  %101 = add nsw i32 %100, 1
  %102 = sext i32 %101 to i64
  %103 = getelementptr inbounds [301 x i32], [301 x i32]* %7, i64 0, i64 %102
  %104 = load i32, i32* %103, align 4
  store i32 %104, i32* %5, align 4
  %105 = load i32, i32* %13, align 4
  %106 = sext i32 %105 to i64
  %107 = getelementptr inbounds [301 x i32], [301 x i32]* %7, i64 0, i64 %106
  %108 = load i32, i32* %107, align 4
  %109 = load i32, i32* %13, align 4
  %110 = add nsw i32 %109, 1
  %111 = sext i32 %110 to i64
  %112 = getelementptr inbounds [301 x i32], [301 x i32]* %7, i64 0, i64 %111
  store i32 %108, i32* %112, align 4
  %113 = load i32, i32* %5, align 4
  %114 = load i32, i32* %13, align 4
  %115 = sext i32 %114 to i64
  %116 = getelementptr inbounds [301 x i32], [301 x i32]* %7, i64 0, i64 %115
  store i32 %113, i32* %116, align 4
  br label %117

117:                                              ; preds = %99, %88
  %118 = load i32, i32* %2, align 4
  %119 = sub nsw i32 %118, 1
  %120 = sext i32 %119 to i64
  %121 = getelementptr inbounds [301 x i32], [301 x i32]* %7, i64 0, i64 %120
  %122 = load i32, i32* %121, align 4
  store i32 %122, i32* %4, align 4
  br label %123

123:                                              ; preds = %117
  %124 = load i32, i32* %13, align 4
  %125 = add nsw i32 %124, 1
  store i32 %125, i32* %13, align 4
  br label %83

126:                                              ; preds = %83
  %127 = load i32, i32* %3, align 4
  %128 = sitofp i32 %127 to double
  %129 = load double, double* %8, align 8
  %130 = fsub double %128, %129
  store double %130, double* %9, align 8
  %131 = load double, double* %8, align 8
  %132 = load i32, i32* %4, align 4
  %133 = sitofp i32 %132 to double
  %134 = fsub double %131, %133
  store double %134, double* %10, align 8
  %135 = load double, double* %9, align 8
  %136 = load double, double* %10, align 8
  %137 = fcmp ogt double %135, %136
  br i1 %137, label %138, label %141

138:                                              ; preds = %126
  %139 = load i32, i32* %3, align 4
  %140 = call i32 (i8*, ...) @printf(i8* getelementptr inbounds ([3 x i8], [3 x i8]* @.str, i64 0, i64 0), i32 %139)
  br label %158

141:                                              ; preds = %126
  %142 = load double, double* %9, align 8
  %143 = load double, double* %10, align 8
  %144 = fcmp olt double %142, %143
  br i1 %144, label %145, label %148

145:                                              ; preds = %141
  %146 = load i32, i32* %4, align 4
  %147 = call i32 (i8*, ...) @printf(i8* getelementptr inbounds ([3 x i8], [3 x i8]* @.str, i64 0, i64 0), i32 %146)
  br label %157

148:                                              ; preds = %141
  %149 = load double, double* %9, align 8
  %150 = load double, double* %10, align 8
  %151 = fcmp oeq double %149, %150
  br i1 %151, label %152, label %156

152:                                              ; preds = %148
  %153 = load i32, i32* %4, align 4
  %154 = load i32, i32* %3, align 4
  %155 = call i32 (i8*, ...) @printf(i8* getelementptr inbounds ([6 x i8], [6 x i8]* @.str.1, i64 0, i64 0), i32 %153, i32 %154)
  br label %156

156:                                              ; preds = %152, %148
  br label %157

157:                                              ; preds = %156, %145
  br label %158

158:                                              ; preds = %157, %138
  ret i32 0
}

declare dso_local i32 @__isoc99_scanf(i8*, ...) #1

declare dso_local i32 @printf(i8*, ...) #1


!llvm.module.flags = !{!0}
!llvm.ident = !{!1}

!0 = !{i32 1, !"wchar_size", i32 4}
!1 = !{!"clang version 10.0.0-4ubuntu1 "}
